target datalayout = "e-m:e-p270:32:32-p271:32:32-p272:64:64-i64:64-i128:128-f80:128-n8:16:32:64-S128"
target triple = "x86_64-pc-linux-gnu"

%struct.b2Vec2 = type { float, float }
%struct.b2Filter = type { i64, i64, i32 }
%struct.b2Shape = type { i32, i32, i32, i32, i32, i32, float, float, float, float, float, i32, %struct.b2AABB, %struct.b2AABB, %struct.b2Vec2, i32, %struct.b2Filter, ptr, i32, %union.anon.0, i16, i8, i8, i8, i8 }
%struct.b2AABB = type { %struct.b2Vec2, %struct.b2Vec2 }
%union.anon.0 = type { %struct.b2Polygon }
%struct.b2Polygon = type { [8 x %struct.b2Vec2], [8 x %struct.b2Vec2], %struct.b2Vec2, float, i32 }

; Function Attrs: nounwind uwtable
define hidden void @b2DestroyShapeProxy(ptr noundef %0, ptr noundef %1) #0 {
  %3 = alloca ptr, align 8
  %4 = alloca ptr, align 8
  store ptr %0, ptr %3, align 8, !tbaa !34
  store ptr %1, ptr %4, align 8, !tbaa !261
  %5 = load ptr, ptr %3, align 8, !tbaa !34
  %6 = getelementptr inbounds nuw %struct.b2Shape, ptr %5, i32 0, i32 15
  %7 = load i32, ptr %6, align 8, !tbaa !216
  %8 = icmp ne i32 %7, -1
  br i1 %8, label %9, label %16

9:                                                ; preds = %2
  %10 = load ptr, ptr %4, align 8, !tbaa !261
  %11 = load ptr, ptr %3, align 8, !tbaa !34
  %12 = getelementptr inbounds nuw %struct.b2Shape, ptr %11, i32 0, i32 15
  %13 = load i32, ptr %12, align 8, !tbaa !216
  call void @b2BroadPhase_DestroyProxy(ptr noundef %10, i32 noundef %13)
  %14 = load ptr, ptr %3, align 8, !tbaa !34
  %15 = getelementptr inbounds nuw %struct.b2Shape, ptr %14, i32 0, i32 15
  store i32 -1, ptr %15, align 8, !tbaa !216
  br label %16

16:                                               ; preds = %9, %2
  ret void
}