; Function Attrs: nounwind uwtable
define hidden void @b2DestroyShapeProxy(ptr noundef captures(none) %0, ptr noundef %1) local_unnamed_addr #0 {
  %3 = getelementptr inbounds nuw i8, ptr %0, i64 88
  %4 = load i32, ptr %3, align 8, !tbaa !43
  %.not = icmp eq i32 %4, -1
  br i1 %.not, label %6, label %5

5:                                                ; preds = %2
  tail call void @b2BroadPhase_DestroyProxy(ptr noundef %1, i32 noundef %4) #10
  store i32 -1, ptr %3, align 8, !tbaa !43
  br label %6

6:                                                ; preds = %5, %2
  ret void
}